target datalayout = "e-m:e-p270:32:32-p271:32:32-p272:64:64-i64:64-i128:128-f80:128-n8:16:32:64-S128"
target triple = "x86_64-pc-linux-gnu"

%struct.ma_lpf1_config = type { i32, i32, i32, double, double }

; Function Attrs: alwaysinline nounwind uwtable
define internal void @ma_zero_memory_default(ptr noundef %0, i64 noundef %1) #7 {
  %3 = alloca ptr, align 8
  %4 = alloca i64, align 8
  store ptr %0, ptr %3, align 8
  store i64 %1, ptr %4, align 8
  %5 = load ptr, ptr %3, align 8
  %6 = icmp eq ptr %5, null
  br i1 %6, label %7, label %8

7:                                                ; preds = %2
  br label %14

8:                                                ; preds = %2
  %9 = load i64, ptr %4, align 8
  %10 = icmp ugt i64 %9, 0
  br i1 %10, label %11, label %14

11:                                               ; preds = %8
  %12 = load ptr, ptr %3, align 8
  %13 = load i64, ptr %4, align 8
  call void @llvm.memset.p0.i64(ptr align 1 %12, i8 0, i64 %13, i1 false)
  br label %14

14:                                               ; preds = %7, %11, %8
  ret void
}

; Function Attrs: nounwind uwtable
define hidden void @ma_lpf1_config_init(ptr dead_on_unwind noalias writable sret(%struct.ma_lpf1_config) align 8 %0, i32 noundef %1, i32 noundef %2, i32 noundef %3, double noundef %4) #0 {
  %6 = alloca i32, align 4
  %7 = alloca i32, align 4
  %8 = alloca i32, align 4
  %9 = alloca double, align 8
  store i32 %1, ptr %6, align 4
  store i32 %2, ptr %7, align 4
  store i32 %3, ptr %8, align 4
  store double %4, ptr %9, align 8
  call void @ma_zero_memory_default(ptr noundef %0, i64 noundef 32)
  %10 = load i32, ptr %6, align 4
  %11 = getelementptr inbounds nuw %struct.ma_lpf1_config, ptr %0, i32 0, i32 0
  store i32 %10, ptr %11, align 8
  %12 = load i32, ptr %7, align 4
  %13 = getelementptr inbounds nuw %struct.ma_lpf1_config, ptr %0, i32 0, i32 1
  store i32 %12, ptr %13, align 4
  %14 = load i32, ptr %8, align 4
  %15 = getelementptr inbounds nuw %struct.ma_lpf1_config, ptr %0, i32 0, i32 2
  store i32 %14, ptr %15, align 8
  %16 = load double, ptr %9, align 8
  %17 = getelementptr inbounds nuw %struct.ma_lpf1_config, ptr %0, i32 0, i32 3
  store double %16, ptr %17, align 8
  %18 = getelementptr inbounds nuw %struct.ma_lpf1_config, ptr %0, i32 0, i32 4
  store double 5.000000e-01, ptr %18, align 8
  ret void
}