; Function Attrs: mustprogress nofree norecurse nosync nounwind willreturn memory(argmem: write) uwtable
define hidden void @ma_lpf1_config_init(ptr dead_on_unwind noalias writable writeonly sret(%struct.ma_lpf1_config) align 8 captures(none) %0, i32 noundef %1, i32 noundef %2, i32 noundef %3, double noundef %4) local_unnamed_addr #0 {
  %.not = icmp eq ptr %0, null
  br i1 %.not, label %ma_zero_memory_default.exit, label %6

6:                                                ; preds = %5
  %7 = getelementptr inbounds nuw i8, ptr %0, i64 8
  store i64 0, ptr %7, align 8
  br label %ma_zero_memory_default.exit

ma_zero_memory_default.exit:                      ; preds = %5, %6
  store i32 %1, ptr %0, align 8
  %8 = getelementptr inbounds nuw i8, ptr %0, i64 4
  store i32 %2, ptr %8, align 4
  %9 = getelementptr inbounds nuw i8, ptr %0, i64 8
  store i32 %3, ptr %9, align 8
  %10 = getelementptr inbounds nuw i8, ptr %0, i64 16
  store double %4, ptr %10, align 8
  %11 = getelementptr inbounds nuw i8, ptr %0, i64 24
  store double 5.000000e-01, ptr %11, align 8
  ret void
}